Certificate:
    Data:
        Version: 3 (0x2)
        Serial Number:
            43:1a:5c:d9:37:32:38:f2:d7:66:83:a8:a7:59:76:0e
        Signature Algorithm: sha256WithRSAEncryption
        Issuer: CN=savinkin.org
        Validity
            Not Before: Jul  8 17:17:01 2024 GMT
            Not After : Oct 11 17:17:01 2026 GMT
        Subject: CN=dvs
        Subject Public Key Info:
            Public Key Algorithm: rsaEncryption
                Public-Key: (2048 bit)
                Modulus:
                    00:ba:ec:34:ce:3c:50:17:3f:34:b2:a1:77:2a:a0:
                    86:bc:64:74:6f:41:39:20:ab:02:31:26:32:60:59:
                    13:8a:46:0c:67:c2:d1:e1:27:0c:17:a7:d8:1f:9e:
                    78:99:61:a1:a0:84:9e:4e:ca:89:1a:12:85:3e:de:
                    21:18:2c:63:7e:84:4e:f8:e7:ed:cc:79:8e:e5:48:
                    b5:d6:04:48:59:3e:08:bb:82:79:2a:f2:ba:ab:24:
                    30:a7:8f:26:c6:dd:fd:58:08:41:18:83:26:9c:24:
                    e7:99:65:a9:dd:45:36:ef:a8:19:de:df:f6:95:1b:
                    ad:c8:10:82:8b:05:12:17:2d:3e:03:7d:ee:c2:c2:
                    95:76:ca:21:7d:bb:0d:a7:7b:87:fc:66:f7:92:ac:
                    cf:d4:25:f5:e5:1a:83:ba:8e:a9:cf:ab:bc:72:dd:
                    64:96:7d:5f:2b:e4:04:d0:ae:40:c3:d0:01:04:2d:
                    13:c3:5a:43:b5:14:34:9f:fd:43:31:c0:95:e0:44:
                    61:38:d6:a3:c2:3e:76:e9:56:2a:fe:78:5c:31:ee:
                    1f:bc:5e:07:85:6d:c5:1a:d4:a4:52:cb:e5:19:16:
                    ad:29:a8:45:dc:f1:95:9b:ae:9c:f8:5d:11:6b:62:
                    cc:dd:2c:5c:72:a3:f4:bc:e6:cc:2b:59:e1:44:33:
                    56:e7
                Exponent: 65537 (0x10001)
        X509v3 extensions:
            X509v3 Basic Constraints: 
                CA:FALSE
            X509v3 Subject Key Identifier: 
                DB:43:8B:DB:08:6C:D5:5F:72:7F:36:57:BC:7A:BB:79:3F:D4:FD:23
            X509v3 Authority Key Identifier: 
                keyid:E2:BB:FA:DF:57:60:19:43:25:55:76:9B:21:3B:8E:F3:3E:80:55:6F
                DirName:/CN=savinkin.org
                serial:2D:6C:86:BE:99:F0:F5:4A:6A:CD:54:A2:96:7E:D6:2F:19:5D:C9:BC
            X509v3 Extended Key Usage: 
                TLS Web Client Authentication
            X509v3 Key Usage: 
                Digital Signature
    Signature Algorithm: sha256WithRSAEncryption
    Signature Value:
        4a:57:7e:a1:64:fb:f4:70:f0:4b:30:eb:a3:28:05:61:39:92:
        d2:57:9c:13:df:0a:75:32:97:f4:21:cb:93:eb:5e:f5:9d:f7:
        ca:26:54:1a:b9:56:00:6e:67:4e:ed:73:2b:5b:89:8a:c6:b0:
        2c:b5:da:85:1d:60:0b:e1:06:c1:01:b8:3b:b5:cc:31:e0:3d:
        4d:4a:10:e3:1d:c8:b1:96:14:56:48:4e:2f:81:d5:22:27:17:
        d4:d4:b9:f3:e0:d8:12:e9:93:d1:50:9d:51:4f:d6:42:eb:09:
        f9:6f:a0:c2:06:4f:da:45:3a:da:30:fa:fb:e9:10:0d:4c:b4:
        5c:f1:bb:ce:1a:b5:22:2a:e3:99:c6:a3:4d:ba:da:be:66:f1:
        a2:93:a0:60:14:30:96:b5:cf:b9:a2:eb:d9:ad:fb:32:b2:79:
        41:81:0c:41:25:b0:9b:d5:48:d3:2f:c4:a6:38:d0:4d:fe:f9:
        1f:e1:b9:91:61:57:67:57:e5:1a:e9:2e:81:26:b7:43:44:13:
        74:58:54:54:1e:70:14:af:bf:5e:ce:54:b5:ff:b1:a0:81:39:
        a3:43:5a:8f:76:67:8b:44:86:0b:ca:11:3a:f7:a8:da:45:f8:
        3e:86:ca:ca:58:57:71:bd:3c:81:47:33:e2:36:c7:0f:1e:22:
        1a:e8:51:e3
-----BEGIN CERTIFICATE-----
MIIDUzCCAjugAwIBAgIQQxpc2TcyOPLXZoOop1l2DjANBgkqhkiG9w0BAQsFADAX
MRUwEwYDVQQDDAxzYXZpbmtpbi5vcmcwHhcNMjQwNzA4MTcxNzAxWhcNMjYxMDEx
MTcxNzAxWjAOMQwwCgYDVQQDDANkdnMwggEiMA0GCSqGSIb3DQEBAQUAA4IBDwAw
ggEKAoIBAQC67DTOPFAXPzSyoXcqoIa8ZHRvQTkgqwIxJjJgWROKRgxnwtHhJwwX
p9gfnniZYaGghJ5OyokaEoU+3iEYLGN+hE745+3MeY7lSLXWBEhZPgi7gnkq8rqr
JDCnjybG3f1YCEEYgyacJOeZZandRTbvqBne3/aVG63IEIKLBRIXLT4Dfe7CwpV2
yiF9uw2ne4f8ZveSrM/UJfXlGoO6jqnPq7xy3WSWfV8r5ATQrkDD0AEELRPDWkO1
FDSf/UMxwJXgRGE41qPCPnbpVir+eFwx7h+8XgeFbcUa1KRSy+UZFq0pqEXc8ZWb
rpz4XRFrYszdLFxyo/S85swrWeFEM1bnAgMBAAGjgaMwgaAwCQYDVR0TBAIwADAd
BgNVHQ4EFgQU20OL2whs1V9yfzZXvHq7eT/U/SMwUgYDVR0jBEswSYAU4rv631dg
GUMlVXabITuO8z6AVW+hG6QZMBcxFTATBgNVBAMMDHNhdmlua2luLm9yZ4IULWyG
vpnw9UpqzVSiln7WLxldybwwEwYDVR0lBAwwCgYIKwYBBQUHAwIwCwYDVR0PBAQD
AgeAMA0GCSqGSIb3DQEBCwUAA4IBAQBKV36hZPv0cPBLMOujKAVhOZLSV5wT3wp1
Mpf0IcuT6171nffKJlQauVYAbmdO7XMrW4mKxrAstdqFHWAL4QbBAbg7tcwx4D1N
ShDjHcixlhRWSE4vgdUiJxfU1Lnz4NgS6ZPRUJ1RT9ZC6wn5b6DCBk/aRTraMPr7
6RANTLRc8bvOGrUiKuOZxqNNutq+ZvGik6BgFDCWtc+5ouvZrfsysnlBgQxBJbCb
1UjTL8SmONBN/vkf4bmRYVdnV+Ua6S6BJrdDRBN0WFRUHnAUr79ezlS1/7GggTmj
Q1qPdmeLRIYLyhE696jaRfg+hsrKWFdxvTyBRzPiNscPHiIa6FHj
-----END CERTIFICATE-----
