Certificate:
    Data:
        Version: 3 (0x2)
        Serial Number:
            8e:93:b8:72:c4:45:e7:a0:d1:23:4b:5d:2c:df:ba:af
        Signature Algorithm: sha256WithRSAEncryption
        Issuer: CN=savinkin.org
        Validity
            Not Before: Aug 21 16:57:21 2024 GMT
            Not After : Nov 24 16:57:21 2026 GMT
        Subject: CN=sirin
        Subject Public Key Info:
            Public Key Algorithm: rsaEncryption
                Public-Key: (2048 bit)
                Modulus:
                    00:aa:76:81:72:71:25:ee:8f:07:d4:85:65:66:47:
                    7c:a5:e9:1c:0f:a0:9d:93:96:3b:eb:35:72:71:8e:
                    74:ef:7f:e1:45:25:0e:c4:15:d8:46:8a:d2:a3:ae:
                    fc:c7:fe:f6:59:bf:01:8e:b8:8c:76:3b:d3:14:f6:
                    cb:3a:25:23:8c:42:af:26:6d:00:7a:31:8c:54:e9:
                    45:3d:2c:d1:2d:28:cb:ad:1c:67:b5:2f:79:53:0a:
                    64:fc:07:65:8d:d0:13:02:aa:16:ec:e6:1b:01:a5:
                    88:10:c8:5d:b0:b5:df:de:7c:ae:d7:80:e2:ef:81:
                    dc:10:2b:ee:79:c3:2b:5a:62:60:52:87:d0:b3:c2:
                    d0:f7:2d:ec:5f:43:88:e7:f5:59:88:45:2c:76:68:
                    12:a8:67:2b:fa:ed:fe:c3:ad:6d:a6:b2:aa:74:0a:
                    57:e2:10:28:d6:7b:07:f6:88:41:f6:85:f2:a4:05:
                    cc:b0:f2:ac:69:f6:11:bb:25:85:a4:fe:ef:6e:4d:
                    f6:d5:e8:15:95:d4:50:9a:7d:d0:2c:cb:83:bd:4a:
                    4c:80:f0:9f:64:a2:a0:7b:cd:a8:fd:9e:e3:35:81:
                    8f:75:7a:bd:0b:21:64:4f:0a:f9:f8:d8:4b:63:33:
                    ab:82:71:fe:f7:77:0f:fa:ac:27:45:3d:6f:a5:7a:
                    18:d5
                Exponent: 65537 (0x10001)
        X509v3 extensions:
            X509v3 Basic Constraints: 
                CA:FALSE
            X509v3 Subject Key Identifier: 
                A1:7F:95:D3:76:03:BD:1D:D1:DA:DA:DE:28:4F:59:8B:D5:DF:1B:95
            X509v3 Authority Key Identifier: 
                keyid:E2:BB:FA:DF:57:60:19:43:25:55:76:9B:21:3B:8E:F3:3E:80:55:6F
                DirName:/CN=savinkin.org
                serial:2D:6C:86:BE:99:F0:F5:4A:6A:CD:54:A2:96:7E:D6:2F:19:5D:C9:BC
            X509v3 Extended Key Usage: 
                TLS Web Client Authentication
            X509v3 Key Usage: 
                Digital Signature
    Signature Algorithm: sha256WithRSAEncryption
    Signature Value:
        8e:c6:a0:6b:3a:03:a0:c8:97:9e:24:0e:19:02:2a:00:4d:2d:
        41:36:65:b9:95:90:e1:f4:70:72:43:b9:a9:07:a9:21:b6:6a:
        a2:68:76:62:56:82:78:83:02:d5:40:b7:84:5d:f8:7a:37:73:
        d7:56:0f:81:92:d8:68:0b:44:e3:e2:bd:78:a0:1c:2e:45:8a:
        f6:69:60:e0:51:94:3a:26:af:49:f5:be:36:b5:04:1d:8f:a3:
        6d:c1:9e:51:44:7c:81:cb:3e:c3:30:42:d7:ea:d0:be:ec:f4:
        45:6b:9b:f8:5a:10:11:cd:b5:04:10:6c:85:bf:13:a8:9e:06:
        c5:ea:37:d2:72:a9:92:78:f2:e6:57:a7:c5:5b:77:6e:c1:10:
        7c:06:94:65:76:94:d9:3d:b3:f9:97:70:c4:93:9a:75:f6:66:
        16:4c:3a:1a:70:97:74:27:98:02:9f:c9:26:fe:c9:74:1b:0b:
        71:50:f6:f6:8a:01:a6:fc:05:1c:54:d4:c0:d7:61:d9:15:98:
        75:a5:63:00:bc:be:f8:dc:e1:bb:74:ec:c4:5f:ca:31:ff:63:
        41:db:1a:12:df:7e:3d:a8:b8:b3:07:42:8f:99:7b:60:88:71:
        80:d7:e4:6e:94:37:00:81:78:dc:8f:e6:8c:43:b9:b6:d4:43:
        3c:8c:79:15
-----BEGIN CERTIFICATE-----
MIIDVjCCAj6gAwIBAgIRAI6TuHLEReeg0SNLXSzfuq8wDQYJKoZIhvcNAQELBQAw
FzEVMBMGA1UEAwwMc2F2aW5raW4ub3JnMB4XDTI0MDgyMTE2NTcyMVoXDTI2MTEy
NDE2NTcyMVowEDEOMAwGA1UEAwwFc2lyaW4wggEiMA0GCSqGSIb3DQEBAQUAA4IB
DwAwggEKAoIBAQCqdoFycSXujwfUhWVmR3yl6RwPoJ2TljvrNXJxjnTvf+FFJQ7E
FdhGitKjrvzH/vZZvwGOuIx2O9MU9ss6JSOMQq8mbQB6MYxU6UU9LNEtKMutHGe1
L3lTCmT8B2WN0BMCqhbs5hsBpYgQyF2wtd/efK7XgOLvgdwQK+55wytaYmBSh9Cz
wtD3LexfQ4jn9VmIRSx2aBKoZyv67f7DrW2msqp0ClfiECjWewf2iEH2hfKkBcyw
8qxp9hG7JYWk/u9uTfbV6BWV1FCafdAsy4O9SkyA8J9koqB7zaj9nuM1gY91er0L
IWRPCvn42EtjM6uCcf73dw/6rCdFPW+lehjVAgMBAAGjgaMwgaAwCQYDVR0TBAIw
ADAdBgNVHQ4EFgQUoX+V03YDvR3R2treKE9Zi9XfG5UwUgYDVR0jBEswSYAU4rv6
31dgGUMlVXabITuO8z6AVW+hG6QZMBcxFTATBgNVBAMMDHNhdmlua2luLm9yZ4IU
LWyGvpnw9UpqzVSiln7WLxldybwwEwYDVR0lBAwwCgYIKwYBBQUHAwIwCwYDVR0P
BAQDAgeAMA0GCSqGSIb3DQEBCwUAA4IBAQCOxqBrOgOgyJeeJA4ZAioATS1BNmW5
lZDh9HByQ7mpB6khtmqiaHZiVoJ4gwLVQLeEXfh6N3PXVg+BkthoC0Tj4r14oBwu
RYr2aWDgUZQ6Jq9J9b42tQQdj6NtwZ5RRHyByz7DMELX6tC+7PRFa5v4WhARzbUE
EGyFvxOongbF6jfScqmSePLmV6fFW3duwRB8BpRldpTZPbP5l3DEk5p19mYWTDoa
cJd0J5gCn8km/sl0GwtxUPb2igGm/AUcVNTA12HZFZh1pWMAvL743OG7dOzEX8ox
/2NB2xoS3349qLizB0KPmXtgiHGA1+RulDcAgXjcj+aMQ7m21EM8jHkV
-----END CERTIFICATE-----
