Certificate:
    Data:
        Version: 3 (0x2)
        Serial Number:
            91:39:ee:fc:13:7e:c3:00:87:89:0d:2b:57:2a:c7:80
        Signature Algorithm: sha256WithRSAEncryption
        Issuer: CN=savinkin.org
        Validity
            Not Before: Jul  8 17:18:03 2024 GMT
            Not After : Oct 11 17:18:03 2026 GMT
        Subject: CN=savinkin13
        Subject Public Key Info:
            Public Key Algorithm: rsaEncryption
                Public-Key: (2048 bit)
                Modulus:
                    00:e0:b8:89:73:8a:4d:c4:10:ad:fe:54:ba:fc:c0:
                    88:83:9d:b2:65:1e:64:a4:76:3a:76:c2:85:14:39:
                    19:17:7f:84:eb:f3:2f:92:19:50:13:8e:d9:89:87:
                    bb:af:6f:c8:03:00:29:30:27:20:5a:53:2f:1f:ea:
                    a1:b8:9e:13:83:90:62:74:5e:01:b1:ac:d7:ea:ce:
                    81:b3:63:ea:de:5c:80:74:e7:83:c0:45:33:c9:de:
                    66:9c:db:2d:25:bc:ee:79:5c:39:a4:47:21:1d:d5:
                    85:b4:4e:0e:4e:08:8d:ba:e3:7e:af:bc:69:7c:5f:
                    29:d0:9e:db:42:f2:f8:b0:5d:55:9a:d9:1f:41:ea:
                    7b:53:8c:36:45:38:40:c8:06:18:20:db:24:00:a7:
                    a2:45:af:99:9a:84:2a:30:82:55:f7:60:2d:6a:6c:
                    7d:69:ef:c9:8d:b3:a8:f7:45:88:d3:53:f0:69:c1:
                    cc:47:f2:e5:bb:a3:7f:22:ce:c4:27:ee:a8:cf:47:
                    61:85:ad:36:d9:c5:bf:48:6d:ad:dc:d7:ef:b5:f0:
                    f4:1c:58:69:1a:44:e0:fb:81:14:6e:65:bc:39:4b:
                    49:a8:fe:77:20:c7:1a:0b:9c:44:90:9a:4a:b8:e8:
                    a9:d2:26:f7:30:ab:ab:b9:54:a9:59:54:d4:a1:d8:
                    40:c3
                Exponent: 65537 (0x10001)
        X509v3 extensions:
            X509v3 Basic Constraints: 
                CA:FALSE
            X509v3 Subject Key Identifier: 
                56:7A:4C:62:86:FE:7C:EB:11:C0:30:62:AA:E5:AC:04:75:81:13:D8
            X509v3 Authority Key Identifier: 
                keyid:E2:BB:FA:DF:57:60:19:43:25:55:76:9B:21:3B:8E:F3:3E:80:55:6F
                DirName:/CN=savinkin.org
                serial:2D:6C:86:BE:99:F0:F5:4A:6A:CD:54:A2:96:7E:D6:2F:19:5D:C9:BC
            X509v3 Extended Key Usage: 
                TLS Web Client Authentication
            X509v3 Key Usage: 
                Digital Signature
    Signature Algorithm: sha256WithRSAEncryption
    Signature Value:
        16:4c:61:48:35:a7:4b:06:60:d0:63:74:32:b6:f3:73:e8:93:
        7c:55:12:f2:c7:c4:df:6c:77:80:6a:06:81:a1:c3:c6:4f:59:
        f9:76:ce:25:88:99:e2:92:e5:6e:b7:01:64:30:2a:80:5d:37:
        14:3d:65:a7:df:36:ec:c5:92:dc:e1:4e:d7:0a:ff:a7:7f:d8:
        9c:2a:f7:0c:bc:9a:25:d7:af:c3:6b:2a:cd:14:2d:20:7a:8d:
        bd:49:73:0d:64:46:5a:ce:2b:c1:a1:76:ed:8f:97:b8:81:1f:
        d7:bc:1e:e4:cf:2d:13:07:c4:e2:20:47:c0:ca:c5:3d:a7:e5:
        44:ac:3d:1c:fd:1f:31:28:e7:e1:4c:8d:b5:3a:b5:8b:e9:0a:
        b4:c2:38:48:c3:fe:1b:38:3f:18:3b:ae:26:2f:fe:b1:d9:2a:
        c3:83:7a:26:ae:90:39:12:84:39:86:51:74:65:37:4f:09:16:
        1b:be:07:6b:bf:39:cb:60:4d:aa:51:65:ed:83:f5:c8:d0:c3:
        0f:3a:46:ef:86:e6:1b:09:e3:f2:ab:c4:ac:5d:32:06:6c:ff:
        7d:27:92:7c:17:b2:33:36:51:3a:57:80:4d:6b:1a:a9:ea:eb:
        e1:6e:16:90:d4:b8:0a:b6:98:1d:50:17:fe:63:c7:bb:31:c5:
        2a:fc:ea:dc
-----BEGIN CERTIFICATE-----
MIIDWzCCAkOgAwIBAgIRAJE57vwTfsMAh4kNK1cqx4AwDQYJKoZIhvcNAQELBQAw
FzEVMBMGA1UEAwwMc2F2aW5raW4ub3JnMB4XDTI0MDcwODE3MTgwM1oXDTI2MTAx
MTE3MTgwM1owFTETMBEGA1UEAwwKc2F2aW5raW4xMzCCASIwDQYJKoZIhvcNAQEB
BQADggEPADCCAQoCggEBAOC4iXOKTcQQrf5UuvzAiIOdsmUeZKR2OnbChRQ5GRd/
hOvzL5IZUBOO2YmHu69vyAMAKTAnIFpTLx/qobieE4OQYnReAbGs1+rOgbNj6t5c
gHTng8BFM8neZpzbLSW87nlcOaRHIR3VhbRODk4Ijbrjfq+8aXxfKdCe20Ly+LBd
VZrZH0Hqe1OMNkU4QMgGGCDbJACnokWvmZqEKjCCVfdgLWpsfWnvyY2zqPdFiNNT
8GnBzEfy5bujfyLOxCfuqM9HYYWtNtnFv0htrdzX77Xw9BxYaRpE4PuBFG5lvDlL
Saj+dyDHGgucRJCaSrjoqdIm9zCrq7lUqVlU1KHYQMMCAwEAAaOBozCBoDAJBgNV
HRMEAjAAMB0GA1UdDgQWBBRWekxihv586xHAMGKq5awEdYET2DBSBgNVHSMESzBJ
gBTiu/rfV2AZQyVVdpshO47zPoBVb6EbpBkwFzEVMBMGA1UEAwwMc2F2aW5raW4u
b3JnghQtbIa+mfD1SmrNVKKWftYvGV3JvDATBgNVHSUEDDAKBggrBgEFBQcDAjAL
BgNVHQ8EBAMCB4AwDQYJKoZIhvcNAQELBQADggEBABZMYUg1p0sGYNBjdDK283Po
k3xVEvLHxN9sd4BqBoGhw8ZPWfl2ziWImeKS5W63AWQwKoBdNxQ9ZaffNuzFktzh
TtcK/6d/2Jwq9wy8miXXr8NrKs0ULSB6jb1Jcw1kRlrOK8Ghdu2Pl7iBH9e8HuTP
LRMHxOIgR8DKxT2n5USsPRz9HzEo5+FMjbU6tYvpCrTCOEjD/hs4Pxg7riYv/rHZ
KsODeiaukDkShDmGUXRlN08JFhu+B2u/OctgTapRZe2D9cjQww86Ru+G5hsJ4/Kr
xKxdMgZs/30nknwXsjM2UTpXgE1rGqnq6+FuFpDUuAq2mB1QF/5jx7sxxSr86tw=
-----END CERTIFICATE-----
