Certificate:
    Data:
        Version: 3 (0x2)
        Serial Number:
            c2:9e:19:7f:d6:ab:f7:be:75:17:fc:bc:cd:1d:ad:be
        Signature Algorithm: sha256WithRSAEncryption
        Issuer: CN=savinkin.org
        Validity
            Not Before: Jul  8 17:18:17 2024 GMT
            Not After : Oct 11 17:18:17 2026 GMT
        Subject: CN=odroidxu4
        Subject Public Key Info:
            Public Key Algorithm: rsaEncryption
                Public-Key: (2048 bit)
                Modulus:
                    00:b9:53:f4:bd:5b:cf:8c:a0:b9:f9:e1:5b:f4:ea:
                    d8:c3:97:de:00:13:2c:f4:96:c2:88:bb:25:90:12:
                    37:eb:5f:5c:75:f6:a7:32:76:57:f5:90:7f:0f:08:
                    c6:2d:4d:40:42:cb:5f:6f:c7:94:dd:37:de:44:67:
                    9a:f1:b2:e7:e9:99:e1:41:cf:99:34:47:05:b8:75:
                    a7:11:26:02:49:d0:6f:d7:7d:fe:37:51:d3:c2:f6:
                    46:28:51:33:75:ae:23:d0:8d:91:11:67:ed:37:97:
                    6c:e1:98:aa:49:54:28:3b:0d:d2:b3:e4:28:d3:f3:
                    75:eb:1a:41:a3:59:69:97:bf:31:cb:67:14:1b:86:
                    09:cf:23:4c:42:26:9f:00:58:a7:81:3f:82:f0:e0:
                    6f:98:b1:f0:4f:ae:06:24:51:9a:aa:4d:d3:05:39:
                    c3:3f:98:6f:38:b2:4f:82:95:e9:29:78:08:e4:e5:
                    d7:17:36:60:fb:43:4f:ba:b0:ac:f0:56:f6:c9:eb:
                    48:df:98:82:ed:ff:ce:63:75:63:84:d9:74:68:9e:
                    01:59:0d:8c:28:f8:56:24:1a:c9:c2:2c:40:e9:4a:
                    08:f4:e2:a4:72:ad:5a:69:3c:71:98:e5:5e:a2:74:
                    a0:19:e9:9f:46:0c:17:2c:2b:1b:78:99:94:e1:0d:
                    bf:df
                Exponent: 65537 (0x10001)
        X509v3 extensions:
            X509v3 Basic Constraints: 
                CA:FALSE
            X509v3 Subject Key Identifier: 
                B9:5A:01:A7:73:B0:25:3D:FB:D4:65:66:6B:47:D6:1C:1B:58:F4:7D
            X509v3 Authority Key Identifier: 
                keyid:E2:BB:FA:DF:57:60:19:43:25:55:76:9B:21:3B:8E:F3:3E:80:55:6F
                DirName:/CN=savinkin.org
                serial:2D:6C:86:BE:99:F0:F5:4A:6A:CD:54:A2:96:7E:D6:2F:19:5D:C9:BC
            X509v3 Extended Key Usage: 
                TLS Web Client Authentication
            X509v3 Key Usage: 
                Digital Signature
    Signature Algorithm: sha256WithRSAEncryption
    Signature Value:
        a5:36:c6:7a:cb:9c:b4:03:a3:02:f2:24:2e:4c:24:6c:b8:bf:
        06:72:97:2b:9d:be:61:d8:51:b9:91:f4:d1:ed:41:44:4d:ca:
        21:ff:e8:6e:53:b9:0c:0c:fc:eb:9e:58:c1:08:f7:3e:37:8b:
        96:27:0e:f4:30:f1:dd:90:52:9a:c2:89:87:54:16:b7:75:2a:
        25:9b:ce:1c:13:2c:63:8c:55:c4:38:5c:aa:5b:b7:7d:cb:7c:
        ea:76:c5:a6:0a:18:51:0d:71:a9:2c:e5:6d:9f:7b:00:ec:ad:
        e8:33:66:2b:a1:64:d4:7f:9b:ad:40:e4:07:c5:3d:c8:d4:ba:
        91:9a:64:89:f4:aa:58:f7:05:f1:55:5a:a6:ae:6b:be:c1:c2:
        09:fd:a8:f5:ec:8d:c0:3c:f8:90:b5:61:17:c3:7c:ef:b6:d2:
        46:ae:22:61:9f:74:7b:e2:06:6d:f4:9c:c8:82:36:a1:b0:23:
        89:a5:c4:16:20:ab:89:4a:e0:a9:b2:4f:88:20:db:70:0d:ce:
        08:6b:fe:aa:7b:cf:d2:b7:07:8a:48:59:d7:7a:ac:0e:e2:d4:
        f3:5f:82:4a:7d:a9:30:b8:cd:f6:65:6b:41:24:48:f8:8e:a9:
        62:d6:25:60:30:9f:84:7b:61:c8:c4:c4:1f:00:7c:26:06:89:
        c1:15:42:f7
-----BEGIN CERTIFICATE-----
MIIDWjCCAkKgAwIBAgIRAMKeGX/Wq/e+dRf8vM0drb4wDQYJKoZIhvcNAQELBQAw
FzEVMBMGA1UEAwwMc2F2aW5raW4ub3JnMB4XDTI0MDcwODE3MTgxN1oXDTI2MTAx
MTE3MTgxN1owFDESMBAGA1UEAwwJb2Ryb2lkeHU0MIIBIjANBgkqhkiG9w0BAQEF
AAOCAQ8AMIIBCgKCAQEAuVP0vVvPjKC5+eFb9OrYw5feABMs9JbCiLslkBI3619c
dfanMnZX9ZB/DwjGLU1AQstfb8eU3TfeRGea8bLn6ZnhQc+ZNEcFuHWnESYCSdBv
133+N1HTwvZGKFEzda4j0I2REWftN5ds4ZiqSVQoOw3Ss+Qo0/N16xpBo1lpl78x
y2cUG4YJzyNMQiafAFingT+C8OBvmLHwT64GJFGaqk3TBTnDP5hvOLJPgpXpKXgI
5OXXFzZg+0NPurCs8Fb2yetI35iC7f/OY3VjhNl0aJ4BWQ2MKPhWJBrJwixA6UoI
9OKkcq1aaTxxmOVeonSgGemfRgwXLCsbeJmU4Q2/3wIDAQABo4GjMIGgMAkGA1Ud
EwQCMAAwHQYDVR0OBBYEFLlaAadzsCU9+9RlZmtH1hwbWPR9MFIGA1UdIwRLMEmA
FOK7+t9XYBlDJVV2myE7jvM+gFVvoRukGTAXMRUwEwYDVQQDDAxzYXZpbmtpbi5v
cmeCFC1shr6Z8PVKas1UopZ+1i8ZXcm8MBMGA1UdJQQMMAoGCCsGAQUFBwMCMAsG
A1UdDwQEAwIHgDANBgkqhkiG9w0BAQsFAAOCAQEApTbGesuctAOjAvIkLkwkbLi/
BnKXK52+YdhRuZH00e1BRE3KIf/oblO5DAz8655YwQj3PjeLlicO9DDx3ZBSmsKJ
h1QWt3UqJZvOHBMsY4xVxDhcqlu3fct86nbFpgoYUQ1xqSzlbZ97AOyt6DNmK6Fk
1H+brUDkB8U9yNS6kZpkifSqWPcF8VVapq5rvsHCCf2o9eyNwDz4kLVhF8N877bS
Rq4iYZ90e+IGbfScyII2obAjiaXEFiCriUrgqbJPiCDbcA3OCGv+qnvP0rcHikhZ
13qsDuLU81+CSn2pMLjN9mVrQSRI+I6pYtYlYDCfhHthyMTEHwB8JgaJwRVC9w==
-----END CERTIFICATE-----
